; Function Attrs: inlinehint nounwind uwtable
define internal void @_ZThn8_N12_GLOBAL__N_127GeneralizedHoughBallardImplD1Ev(ptr noundef %0) unnamed_addr #17 align 2 personality ptr @__gxx_personality_v0 {
  %2 = getelementptr inbounds nuw i8, ptr %0, i64 712
  tail call void @_ZN2cv3MatD1Ev(ptr noundef nonnull align 8 dereferenceable(96) %2) #32
  %3 = getelementptr inbounds nuw i8, ptr %0, i64 688
  %4 = load ptr, ptr %3, align 8, !tbaa !95
  %5 = getelementptr inbounds nuw i8, ptr %0, i64 696
  %6 = load ptr, ptr %5, align 8, !tbaa !96
  %.not4.i.i.i.i.i = icmp eq ptr %4, %6
  br i1 %.not4.i.i.i.i.i, label %_ZSt8_DestroyIPSt6vectorIN2cv6Point_IiEESaIS3_EES5_EvT_S7_RSaIT0_E.exit.i.i, label %.lr.ph.i.i.i.i.i

.lr.ph.i.i.i.i.i:                                 ; preds = %1, %_ZSt8_DestroyISt6vectorIN2cv6Point_IiEESaIS3_EEEvPT_.exit.i.i.i.i.i
  %.05.i.i.i.i.i = phi ptr [ %9, %_ZSt8_DestroyISt6vectorIN2cv6Point_IiEESaIS3_EEEvPT_.exit.i.i.i.i.i ], [ %4, %1 ]
  %7 = load ptr, ptr %.05.i.i.i.i.i, align 8, !tbaa !97
  %.not.i.i.i.i.i.i.i.i.i = icmp eq ptr %7, null
  br i1 %.not.i.i.i.i.i.i.i.i.i, label %_ZSt8_DestroyISt6vectorIN2cv6Point_IiEESaIS3_EEEvPT_.exit.i.i.i.i.i, label %8

8:                                                ; preds = %.lr.ph.i.i.i.i.i
  tail call void @_ZdlPv(ptr noundef nonnull %7) #31
  br label %_ZSt8_DestroyISt6vectorIN2cv6Point_IiEESaIS3_EEEvPT_.exit.i.i.i.i.i

_ZSt8_DestroyISt6vectorIN2cv6Point_IiEESaIS3_EEEvPT_.exit.i.i.i.i.i: ; preds = %8, %.lr.ph.i.i.i.i.i
  %9 = getelementptr inbounds nuw i8, ptr %.05.i.i.i.i.i, i64 24
  %.not.i.i.i.i.i = icmp eq ptr %9, %6
  br i1 %.not.i.i.i.i.i, label %_ZSt8_DestroyIPSt6vectorIN2cv6Point_IiEESaIS3_EES5_EvT_S7_RSaIT0_E.exitthread-pre-split.i.i, label %.lr.ph.i.i.i.i.i, !llvm.loop !100

_ZSt8_DestroyIPSt6vectorIN2cv6Point_IiEESaIS3_EES5_EvT_S7_RSaIT0_E.exitthread-pre-split.i.i: ; preds = %_ZSt8_DestroyISt6vectorIN2cv6Point_IiEESaIS3_EEEvPT_.exit.i.i.i.i.i
  %.pr.i.i = load ptr, ptr %3, align 8, !tbaa !95
  br label %_ZSt8_DestroyIPSt6vectorIN2cv6Point_IiEESaIS3_EES5_EvT_S7_RSaIT0_E.exit.i.i

_ZSt8_DestroyIPSt6vectorIN2cv6Point_IiEESaIS3_EES5_EvT_S7_RSaIT0_E.exit.i.i: ; preds = %_ZSt8_DestroyIPSt6vectorIN2cv6Point_IiEESaIS3_EES5_EvT_S7_RSaIT0_E.exitthread-pre-split.i.i, %1
  %10 = phi ptr [ %.pr.i.i, %_ZSt8_DestroyIPSt6vectorIN2cv6Point_IiEESaIS3_EES5_EvT_S7_RSaIT0_E.exitthread-pre-split.i.i ], [ %4, %1 ]
  %.not.i.i.i.i = icmp eq ptr %10, null
  br i1 %.not.i.i.i.i, label %_ZN12_GLOBAL__N_127GeneralizedHoughBallardImplD2Ev.exit, label %11

11:                                               ; preds = %_ZSt8_DestroyIPSt6vectorIN2cv6Point_IiEESaIS3_EES5_EvT_S7_RSaIT0_E.exit.i.i
  tail call void @_ZdlPv(ptr noundef nonnull %10) #31
  br label %_ZN12_GLOBAL__N_127GeneralizedHoughBallardImplD2Ev.exit

_ZN12_GLOBAL__N_127GeneralizedHoughBallardImplD2Ev.exit: ; preds = %_ZSt8_DestroyIPSt6vectorIN2cv6Point_IiEESaIS3_EES5_EvT_S7_RSaIT0_E.exit.i.i, %11
  %12 = getelementptr inbounds i8, ptr %0, i64 -8
  tail call void @_ZN12_GLOBAL__N_120GeneralizedHoughBaseD2Ev(ptr noundef nonnull align 8 dereferenceable(680) %0) #32
  tail call void @_ZN2cv9AlgorithmD2Ev(ptr noundef nonnull align 8 dereferenceable(816) %12) #32
  ret void
}